target datalayout = "e-m:e-p270:32:32-p271:32:32-p272:64:64-i64:64-i128:128-f80:128-n8:16:32:64-S128"
target triple = "x86_64-pc-linux-gnu"

%"struct.std::_Rb_tree_header" = type { %"struct.std::_Rb_tree_node_base", i64 }
%"struct.std::_Rb_tree_node_base" = type { i32, ptr, ptr, ptr }
%"class.SubCircuit::Graph" = type { i8, %"class.std::map", %"class.std::vector", %"class.std::vector.3" }
%"class.std::map" = type { %"class.std::_Rb_tree" }
%"class.std::_Rb_tree" = type { %"struct.std::_Rb_tree<std::__cxx11::basic_string<char>, std::pair<const std::__cxx11::basic_string<char>, int>, std::_Select1st<std::pair<const std::__cxx11::basic_string<char>, int>>, std::less<std::__cxx11::basic_string<char>>>::_Rb_tree_impl" }
%"struct.std::_Rb_tree<std::__cxx11::basic_string<char>, std::pair<const std::__cxx11::basic_string<char>, int>, std::_Select1st<std::pair<const std::__cxx11::basic_string<char>, int>>, std::less<std::__cxx11::basic_string<char>>>::_Rb_tree_impl" = type { [8 x i8], %"struct.std::_Rb_tree_header" }
%"class.std::vector" = type { %"struct.std::_Vector_base" }
%"struct.std::_Vector_base" = type { %"struct.std::_Vector_base<SubCircuit::Graph::Node, std::allocator<SubCircuit::Graph::Node>>::_Vector_impl" }
%"struct.std::_Vector_base<SubCircuit::Graph::Node, std::allocator<SubCircuit::Graph::Node>>::_Vector_impl" = type { %"struct.std::_Vector_base<SubCircuit::Graph::Node, std::allocator<SubCircuit::Graph::Node>>::_Vector_impl_data" }
%"struct.std::_Vector_base<SubCircuit::Graph::Node, std::allocator<SubCircuit::Graph::Node>>::_Vector_impl_data" = type { ptr, ptr, ptr }
%"class.std::vector.3" = type { %"struct.std::_Vector_base.4" }
%"struct.std::_Vector_base.4" = type { %"struct.std::_Vector_base<SubCircuit::Graph::Edge, std::allocator<SubCircuit::Graph::Edge>>::_Vector_impl" }
%"struct.std::_Vector_base<SubCircuit::Graph::Edge, std::allocator<SubCircuit::Graph::Edge>>::_Vector_impl" = type { %"struct.std::_Vector_base<SubCircuit::Graph::Edge, std::allocator<SubCircuit::Graph::Edge>>::_Vector_impl_data" }
%"struct.std::_Vector_base<SubCircuit::Graph::Edge, std::allocator<SubCircuit::Graph::Edge>>::_Vector_impl_data" = type { ptr, ptr, ptr }
%"struct.SubCircuit::Graph::Node" = type <{ %"class.std::__cxx11::basic_string", %"class.std::__cxx11::basic_string", %"class.std::map", %"class.std::vector.22", ptr, i8, [7 x i8] }>
%"class.std::__cxx11::basic_string" = type { %"struct.std::__cxx11::basic_string<char>::_Alloc_hider", i64, %union.anon }
%"struct.std::__cxx11::basic_string<char>::_Alloc_hider" = type { ptr }
%union.anon = type { i64, [8 x i8] }
%"class.std::vector.22" = type { %"struct.std::_Vector_base.23" }
%"struct.std::_Vector_base.23" = type { %"struct.std::_Vector_base<SubCircuit::Graph::Port, std::allocator<SubCircuit::Graph::Port>>::_Vector_impl" }
%"struct.std::_Vector_base<SubCircuit::Graph::Port, std::allocator<SubCircuit::Graph::Port>>::_Vector_impl" = type { %"struct.std::_Vector_base<SubCircuit::Graph::Port, std::allocator<SubCircuit::Graph::Port>>::_Vector_impl_data" }
%"struct.std::_Vector_base<SubCircuit::Graph::Port, std::allocator<SubCircuit::Graph::Port>>::_Vector_impl_data" = type { ptr, ptr, ptr }
%"struct.SubCircuit::Graph::Port" = type { %"class.std::__cxx11::basic_string", i32, %"class.std::vector.27" }
%"class.std::vector.27" = type { %"struct.std::_Vector_base.28" }
%"struct.std::_Vector_base.28" = type { %"struct.std::_Vector_base<SubCircuit::Graph::PortBit, std::allocator<SubCircuit::Graph::PortBit>>::_Vector_impl" }
%"struct.std::_Vector_base<SubCircuit::Graph::PortBit, std::allocator<SubCircuit::Graph::PortBit>>::_Vector_impl" = type { %"struct.std::_Vector_base<SubCircuit::Graph::PortBit, std::allocator<SubCircuit::Graph::PortBit>>::_Vector_impl_data" }
%"struct.std::_Vector_base<SubCircuit::Graph::PortBit, std::allocator<SubCircuit::Graph::PortBit>>::_Vector_impl_data" = type { ptr, ptr, ptr }
%"struct.SubCircuit::Graph::PortBit" = type { i32 }
%"struct.SubCircuit::Graph::Edge" = type <{ %"class.std::set", i32, i8, [3 x i8] }>
%"class.std::set" = type { %"class.std::_Rb_tree.33" }
%"class.std::_Rb_tree.33" = type { %"struct.std::_Rb_tree<SubCircuit::Graph::BitRef, SubCircuit::Graph::BitRef, std::_Identity<SubCircuit::Graph::BitRef>, std::less<SubCircuit::Graph::BitRef>>::_Rb_tree_impl" }
%"struct.std::_Rb_tree<SubCircuit::Graph::BitRef, SubCircuit::Graph::BitRef, std::_Identity<SubCircuit::Graph::BitRef>, std::less<SubCircuit::Graph::BitRef>>::_Rb_tree_impl" = type { [8 x i8], %"struct.std::_Rb_tree_header" }

; Function Attrs: mustprogress nounwind uwtable
define linkonce_odr noundef nonnull align 8 dereferenceable(53) ptr @_ZNSt6vectorIN10SubCircuit5Graph4EdgeESaIS2_EEixEm(ptr noundef nonnull align 8 dereferenceable(24) %0, i64 noundef %1) #5 comdat align 2 {
  %3 = alloca ptr, align 8
  %4 = alloca i64, align 8
  store ptr %0, ptr %3, align 8, !tbaa !78
  store i64 %1, ptr %4, align 8, !tbaa !89
  %5 = load ptr, ptr %3, align 8
  %6 = getelementptr inbounds nuw %"struct.std::_Vector_base.4", ptr %5, i32 0, i32 0
  %7 = getelementptr inbounds nuw %"struct.std::_Vector_base<SubCircuit::Graph::Edge, std::allocator<SubCircuit::Graph::Edge>>::_Vector_impl_data", ptr %6, i32 0, i32 0
  %8 = load ptr, ptr %7, align 8, !tbaa !103
  %9 = load i64, ptr %4, align 8, !tbaa !89
  %10 = getelementptr inbounds nuw %"struct.SubCircuit::Graph::Edge", ptr %8, i64 %9
  ret ptr %10
}

; Function Attrs: mustprogress nounwind uwtable
define linkonce_odr noundef nonnull align 4 dereferenceable(4) ptr @_ZNSt6vectorIN10SubCircuit5Graph7PortBitESaIS2_EEixEm(ptr noundef nonnull align 8 dereferenceable(24) %0, i64 noundef %1) #5 comdat align 2 {
  %3 = alloca ptr, align 8
  %4 = alloca i64, align 8
  store ptr %0, ptr %3, align 8, !tbaa !52
  store i64 %1, ptr %4, align 8, !tbaa !89
  %5 = load ptr, ptr %3, align 8
  %6 = getelementptr inbounds nuw %"struct.std::_Vector_base.28", ptr %5, i32 0, i32 0
  %7 = getelementptr inbounds nuw %"struct.std::_Vector_base<SubCircuit::Graph::PortBit, std::allocator<SubCircuit::Graph::PortBit>>::_Vector_impl_data", ptr %6, i32 0, i32 0
  %8 = load ptr, ptr %7, align 8, !tbaa !141
  %9 = load i64, ptr %4, align 8, !tbaa !89
  %10 = getelementptr inbounds nuw %"struct.SubCircuit::Graph::PortBit", ptr %8, i64 %9
  ret ptr %10
}

; Function Attrs: mustprogress nounwind uwtable
define linkonce_odr noundef i64 @_ZNKSt6vectorIN10SubCircuit5Graph7PortBitESaIS2_EE4sizeEv(ptr noundef nonnull align 8 dereferenceable(24) %0) #5 comdat align 2 {
  %2 = alloca ptr, align 8
  store ptr %0, ptr %2, align 8, !tbaa !52
  %3 = load ptr, ptr %2, align 8
  %4 = getelementptr inbounds nuw %"struct.std::_Vector_base.28", ptr %3, i32 0, i32 0
  %5 = getelementptr inbounds nuw %"struct.std::_Vector_base<SubCircuit::Graph::PortBit, std::allocator<SubCircuit::Graph::PortBit>>::_Vector_impl_data", ptr %4, i32 0, i32 1
  %6 = load ptr, ptr %5, align 8, !tbaa !144
  %7 = getelementptr inbounds nuw %"struct.std::_Vector_base.28", ptr %3, i32 0, i32 0
  %8 = getelementptr inbounds nuw %"struct.std::_Vector_base<SubCircuit::Graph::PortBit, std::allocator<SubCircuit::Graph::PortBit>>::_Vector_impl_data", ptr %7, i32 0, i32 0
  %9 = load ptr, ptr %8, align 8, !tbaa !141
  %10 = ptrtoint ptr %6 to i64
  %11 = ptrtoint ptr %9 to i64
  %12 = sub i64 %10, %11
  %13 = sdiv exact i64 %12, 4
  ret i64 %13
}

; Function Attrs: mustprogress nounwind uwtable
define linkonce_odr noundef nonnull align 8 dereferenceable(64) ptr @_ZNSt6vectorIN10SubCircuit5Graph4PortESaIS2_EEixEm(ptr noundef nonnull align 8 dereferenceable(24) %0, i64 noundef %1) #5 comdat align 2 {
  %3 = alloca ptr, align 8
  %4 = alloca i64, align 8
  store ptr %0, ptr %3, align 8, !tbaa !48
  store i64 %1, ptr %4, align 8, !tbaa !89
  %5 = load ptr, ptr %3, align 8
  %6 = getelementptr inbounds nuw %"struct.std::_Vector_base.23", ptr %5, i32 0, i32 0
  %7 = getelementptr inbounds nuw %"struct.std::_Vector_base<SubCircuit::Graph::Port, std::allocator<SubCircuit::Graph::Port>>::_Vector_impl_data", ptr %6, i32 0, i32 0
  %8 = load ptr, ptr %7, align 8, !tbaa !140
  %9 = load i64, ptr %4, align 8, !tbaa !89
  %10 = getelementptr inbounds nuw %"struct.SubCircuit::Graph::Port", ptr %8, i64 %9
  ret ptr %10
}

; Function Attrs: mustprogress nounwind uwtable
define linkonce_odr noundef nonnull align 8 dereferenceable(145) ptr @_ZNSt6vectorIN10SubCircuit5Graph4NodeESaIS2_EEixEm(ptr noundef nonnull align 8 dereferenceable(24) %0, i64 noundef %1) #5 comdat align 2 {
  %3 = alloca ptr, align 8
  %4 = alloca i64, align 8
  store ptr %0, ptr %3, align 8, !tbaa !76
  store i64 %1, ptr %4, align 8, !tbaa !89
  %5 = load ptr, ptr %3, align 8
  %6 = getelementptr inbounds nuw %"struct.std::_Vector_base", ptr %5, i32 0, i32 0
  %7 = getelementptr inbounds nuw %"struct.std::_Vector_base<SubCircuit::Graph::Node, std::allocator<SubCircuit::Graph::Node>>::_Vector_impl_data", ptr %6, i32 0, i32 0
  %8 = load ptr, ptr %7, align 8, !tbaa !94
  %9 = load i64, ptr %4, align 8, !tbaa !89
  %10 = getelementptr inbounds nuw %"struct.SubCircuit::Graph::Node", ptr %8, i64 %9
  ret ptr %10
}

; Function Attrs: mustprogress uwtable
define void @_ZN10SubCircuit5Graph14createConstantENSt7__cxx1112basic_stringIcSt11char_traitsIcESaIcEEES6_i(ptr noundef nonnull align 8 dereferenceable(104) %0, ptr noundef %1, ptr noundef %2, i32 noundef %3) #4 align 2 {
  %5 = alloca ptr, align 8
  %6 = alloca ptr, align 8
  %7 = alloca ptr, align 8
  %8 = alloca i32, align 4
  %9 = alloca i32, align 4
  %10 = alloca ptr, align 8
  %11 = alloca i32, align 4
  %12 = alloca ptr, align 8
  %13 = alloca i32, align 4
  %14 = alloca i32, align 4
  store ptr %0, ptr %5, align 8, !tbaa !6
  store ptr %1, ptr %6, align 8, !tbaa !88
  store ptr %2, ptr %7, align 8, !tbaa !88
  store i32 %3, ptr %8, align 4, !tbaa !38
  %15 = load ptr, ptr %5, align 8
  call void @llvm.lifetime.start.p0(i64 4, ptr %9) #3
  %16 = getelementptr inbounds nuw %"class.SubCircuit::Graph", ptr %15, i32 0, i32 1
  %17 = call noundef nonnull align 4 dereferenceable(4) ptr @_ZNSt3mapINSt7__cxx1112basic_stringIcSt11char_traitsIcESaIcEEEiSt4lessIS5_ESaISt4pairIKS5_iEEEixERS9_(ptr noundef nonnull align 8 dereferenceable(48) %16, ptr noundef nonnull align 8 dereferenceable(32) %1)
  %18 = load i32, ptr %17, align 4, !tbaa !38
  store i32 %18, ptr %9, align 4, !tbaa !38
  call void @llvm.lifetime.start.p0(i64 8, ptr %10) #3
  %19 = getelementptr inbounds nuw %"class.SubCircuit::Graph", ptr %15, i32 0, i32 2
  %20 = load i32, ptr %9, align 4, !tbaa !38
  %21 = sext i32 %20 to i64
  %22 = call noundef nonnull align 8 dereferenceable(145) ptr @_ZNSt6vectorIN10SubCircuit5Graph4NodeESaIS2_EEixEm(ptr noundef nonnull align 8 dereferenceable(24) %19, i64 noundef %21) #3
  store ptr %22, ptr %10, align 8, !tbaa !109
  call void @llvm.lifetime.start.p0(i64 4, ptr %11) #3
  %23 = load ptr, ptr %10, align 8, !tbaa !109
  %24 = getelementptr inbounds nuw %"struct.SubCircuit::Graph::Node", ptr %23, i32 0, i32 2
  %25 = call noundef nonnull align 4 dereferenceable(4) ptr @_ZNSt3mapINSt7__cxx1112basic_stringIcSt11char_traitsIcESaIcEEEiSt4lessIS5_ESaISt4pairIKS5_iEEEixERS9_(ptr noundef nonnull align 8 dereferenceable(48) %24, ptr noundef nonnull align 8 dereferenceable(32) %2)
  %26 = load i32, ptr %25, align 4, !tbaa !38
  store i32 %26, ptr %11, align 4, !tbaa !38
  call void @llvm.lifetime.start.p0(i64 8, ptr %12) #3
  %27 = load ptr, ptr %10, align 8, !tbaa !109
  %28 = getelementptr inbounds nuw %"struct.SubCircuit::Graph::Node", ptr %27, i32 0, i32 3
  %29 = load i32, ptr %11, align 4, !tbaa !38
  %30 = sext i32 %29 to i64
  %31 = call noundef nonnull align 8 dereferenceable(64) ptr @_ZNSt6vectorIN10SubCircuit5Graph4PortESaIS2_EEixEm(ptr noundef nonnull align 8 dereferenceable(24) %28, i64 noundef %30) #3
  store ptr %31, ptr %12, align 8, !tbaa !50
  call void @llvm.lifetime.start.p0(i64 4, ptr %13) #3
  store i32 0, ptr %13, align 4, !tbaa !38
  br label %32

32:                                               ; preds = %60, %4
  %33 = load i32, ptr %13, align 4, !tbaa !38
  %34 = load ptr, ptr %12, align 8, !tbaa !50
  %35 = getelementptr inbounds nuw %"struct.SubCircuit::Graph::Port", ptr %34, i32 0, i32 2
  %36 = call noundef i64 @_ZNKSt6vectorIN10SubCircuit5Graph7PortBitESaIS2_EE4sizeEv(ptr noundef nonnull align 8 dereferenceable(24) %35) #3
  %37 = trunc i64 %36 to i32
  %38 = icmp slt i32 %33, %37
  br i1 %38, label %40, label %39

39:                                               ; preds = %32
  call void @llvm.lifetime.end.p0(i64 4, ptr %13) #3
  br label %63

40:                                               ; preds = %32
  call void @llvm.lifetime.start.p0(i64 4, ptr %14) #3
  %41 = load ptr, ptr %12, align 8, !tbaa !50
  %42 = getelementptr inbounds nuw %"struct.SubCircuit::Graph::Port", ptr %41, i32 0, i32 2
  %43 = load i32, ptr %13, align 4, !tbaa !38
  %44 = sext i32 %43 to i64
  %45 = call noundef nonnull align 4 dereferenceable(4) ptr @_ZNSt6vectorIN10SubCircuit5Graph7PortBitESaIS2_EEixEm(ptr noundef nonnull align 8 dereferenceable(24) %42, i64 noundef %44) #3
  %46 = getelementptr inbounds nuw %"struct.SubCircuit::Graph::PortBit", ptr %45, i32 0, i32 0
  %47 = load i32, ptr %46, align 4, !tbaa !72
  store i32 %47, ptr %14, align 4, !tbaa !38
  %48 = load i32, ptr %8, align 4, !tbaa !38
  %49 = srem i32 %48, 2
  %50 = icmp ne i32 %49, 0
  %51 = select i1 %50, i8 49, i8 48
  %52 = sext i8 %51 to i32
  %53 = getelementptr inbounds nuw %"class.SubCircuit::Graph", ptr %15, i32 0, i32 3
  %54 = load i32, ptr %14, align 4, !tbaa !38
  %55 = sext i32 %54 to i64
  %56 = call noundef nonnull align 8 dereferenceable(53) ptr @_ZNSt6vectorIN10SubCircuit5Graph4EdgeESaIS2_EEixEm(ptr noundef nonnull align 8 dereferenceable(24) %53, i64 noundef %55) #3
  %57 = getelementptr inbounds nuw %"struct.SubCircuit::Graph::Edge", ptr %56, i32 0, i32 1
  store i32 %52, ptr %57, align 8, !tbaa !64
  %58 = load i32, ptr %8, align 4, !tbaa !38
  %59 = ashr i32 %58, 1
  store i32 %59, ptr %8, align 4, !tbaa !38
  call void @llvm.lifetime.end.p0(i64 4, ptr %14) #3
  br label %60

60:                                               ; preds = %40
  %61 = load i32, ptr %13, align 4, !tbaa !38
  %62 = add nsw i32 %61, 1
  store i32 %62, ptr %13, align 4, !tbaa !38
  br label %32, !llvm.loop !145

63:                                               ; preds = %39
  call void @llvm.lifetime.end.p0(i64 8, ptr %12) #3
  call void @llvm.lifetime.end.p0(i64 4, ptr %11) #3
  call void @llvm.lifetime.end.p0(i64 8, ptr %10) #3
  call void @llvm.lifetime.end.p0(i64 4, ptr %9) #3
  ret void
}