; Function Attrs: mustprogress uwtable
define void @_ZN10SubCircuit5Graph14createConstantENSt7__cxx1112basic_stringIcSt11char_traitsIcESaIcEEES6_i(ptr noundef nonnull align 8 dereferenceable(104) %0, ptr noundef nonnull %1, ptr noundef %2, i32 noundef %3) local_unnamed_addr #3 align 2 {
  %5 = getelementptr inbounds nuw i8, ptr %0, i64 8
  %6 = tail call noundef nonnull align 4 dereferenceable(4) ptr @_ZNSt3mapINSt7__cxx1112basic_stringIcSt11char_traitsIcESaIcEEEiSt4lessIS5_ESaISt4pairIKS5_iEEEixERS9_(ptr noundef nonnull align 8 dereferenceable(48) %5, ptr noundef nonnull align 8 dereferenceable(32) %1)
  %7 = load i32, ptr %6, align 4, !tbaa !43
  %8 = getelementptr inbounds nuw i8, ptr %0, i64 56
  %9 = sext i32 %7 to i64
  %10 = load ptr, ptr %8, align 8, !tbaa !52
  %11 = getelementptr inbounds nuw %"struct.SubCircuit::Graph::Node", ptr %10, i64 %9
  %12 = getelementptr inbounds nuw i8, ptr %11, i64 64
  %13 = tail call noundef nonnull align 4 dereferenceable(4) ptr @_ZNSt3mapINSt7__cxx1112basic_stringIcSt11char_traitsIcESaIcEEEiSt4lessIS5_ESaISt4pairIKS5_iEEEixERS9_(ptr noundef nonnull align 8 dereferenceable(48) %12, ptr noundef nonnull align 8 dereferenceable(32) %2)
  %14 = load i32, ptr %13, align 4, !tbaa !43
  %15 = getelementptr inbounds nuw i8, ptr %11, i64 112
  %16 = sext i32 %14 to i64
  %17 = load ptr, ptr %15, align 8, !tbaa !93
  %18 = getelementptr inbounds nuw %"struct.SubCircuit::Graph::Port", ptr %17, i64 %16, i32 2
  %19 = getelementptr inbounds nuw i8, ptr %18, i64 8
  %20 = load ptr, ptr %19, align 8, !tbaa !113
  %21 = load ptr, ptr %18, align 8, !tbaa !104
  %22 = ptrtoint ptr %20 to i64
  %23 = ptrtoint ptr %21 to i64
  %24 = sub i64 %22, %23
  %25 = lshr exact i64 %24, 2
  %26 = trunc i64 %25 to i32
  %27 = icmp sgt i32 %26, 0
  br i1 %27, label %.lr.ph, label %._crit_edge

.lr.ph:                                           ; preds = %4
  %28 = getelementptr inbounds nuw i8, ptr %0, i64 80
  %29 = load ptr, ptr %28, align 8, !tbaa !48
  %wide.trip.count = and i64 %25, 2147483647
  br label %30

._crit_edge:                                      ; preds = %30, %4
  ret void

30:                                               ; preds = %.lr.ph, %30
  %indvars.iv = phi i64 [ 0, %.lr.ph ], [ %indvars.iv.next, %30 ]
  %.014 = phi i32 [ %3, %.lr.ph ], [ %37, %30 ]
  %31 = getelementptr inbounds nuw %"struct.SubCircuit::Graph::PortBit", ptr %21, i64 %indvars.iv
  %32 = load i32, ptr %31, align 4, !tbaa !78
  %33 = and i32 %.014, 1
  %34 = or disjoint i32 %33, 48
  %35 = sext i32 %32 to i64
  %36 = getelementptr inbounds nuw %"struct.SubCircuit::Graph::Edge", ptr %29, i64 %35, i32 1
  store i32 %34, ptr %36, align 8, !tbaa !63
  %37 = ashr i32 %.014, 1
  %indvars.iv.next = add nuw nsw i64 %indvars.iv, 1
  %exitcond.not = icmp eq i64 %indvars.iv.next, %wide.trip.count
  br i1 %exitcond.not, label %._crit_edge, label %30, !llvm.loop !119
}